target datalayout = "e-m:e-p270:32:32-p271:32:32-p272:64:64-i64:64-i128:128-f80:128-n8:16:32:64-S128"
target triple = "x86_64-unknown-linux-gnu"

%"class.EA::StdC::Callback" = type { ptr, i64, i64, ptr, ptr, ptr, i32, %"class.EA::Thread::AtomicInt", i8, i8, i64, i64 }
%"class.EA::Thread::AtomicInt" = type { %"struct.std::atomic" }
%"struct.std::atomic" = type { %"struct.std::__atomic_base" }
%"struct.std::__atomic_base" = type { i32 }

@_ZN2EA4StdCL17gpCallbackManagerE = internal global ptr null, align 8

; Function Attrs: noreturn nounwind uwtable
define linkonce_odr hidden void @__clang_call_terminate(ptr noundef %0) #3 comdat {
  %2 = call ptr @__cxa_begin_catch(ptr %0) #10
  call void @_ZSt9terminatev() #11
  unreachable
}

; Function Attrs: mustprogress nounwind uwtable
define linkonce_odr dso_local noundef i32 @_ZStanSt12memory_orderSt23__memory_order_modifier(i32 noundef %__m, i32 noundef %__mod) #1 comdat {
entry:
  %__m.addr = alloca i32, align 4
  %__mod.addr = alloca i32, align 4
  store i32 %__m, ptr %__m.addr, align 4
  store i32 %__mod, ptr %__mod.addr, align 4
  %0 = load i32, ptr %__m.addr, align 4
  %1 = load i32, ptr %__mod.addr, align 4
  %and = and i32 %0, %1
  ret i32 %and
}

; Function Attrs: mustprogress nounwind uwtable
define linkonce_odr dso_local noundef i32 @_ZNSt13__atomic_baseIiEaSEi(ptr noundef nonnull align 4 dereferenceable(4) %this, i32 noundef %__i) #1 comdat align 2 personality ptr @__gxx_personality_v0 {
entry:
  %this.addr.i = alloca ptr, align 8
  %__i.addr.i = alloca i32, align 4
  %__m.addr.i = alloca i32, align 4
  %__b.i = alloca i32, align 4
  %.atomictmp.i = alloca i32, align 4
  %this.addr = alloca ptr, align 8
  %__i.addr = alloca i32, align 4
  store ptr %this, ptr %this.addr, align 8
  store i32 %__i, ptr %__i.addr, align 4
  %this1 = load ptr, ptr %this.addr, align 8
  %0 = load i32, ptr %__i.addr, align 4
  store ptr %this1, ptr %this.addr.i, align 8
  store i32 %0, ptr %__i.addr.i, align 4
  store i32 5, ptr %__m.addr.i, align 4
  %this1.i = load ptr, ptr %this.addr.i, align 8
  %1 = load i32, ptr %__m.addr.i, align 4
  %call.i = invoke noundef i32 @_ZStanSt12memory_orderSt23__memory_order_modifier(i32 noundef %1, i32 noundef 65535)
          to label %invoke.cont.i unwind label %terminate.lpad.i

invoke.cont.i:                                    ; preds = %entry
  store i32 %call.i, ptr %__b.i, align 4
  %2 = load i32, ptr %__m.addr.i, align 4
  %3 = load i32, ptr %__i.addr.i, align 4
  store i32 %3, ptr %.atomictmp.i, align 4
  switch i32 %2, label %monotonic.i [
    i32 3, label %release.i
    i32 5, label %seqcst.i
  ]

monotonic.i:                                      ; preds = %invoke.cont.i
  %4 = load i32, ptr %.atomictmp.i, align 4
  store atomic i32 %4, ptr %this1.i monotonic, align 4
  br label %_ZNSt13__atomic_baseIiE5storeEiSt12memory_order.exit

release.i:                                        ; preds = %invoke.cont.i
  %5 = load i32, ptr %.atomictmp.i, align 4
  store atomic i32 %5, ptr %this1.i release, align 4
  br label %_ZNSt13__atomic_baseIiE5storeEiSt12memory_order.exit

seqcst.i:                                         ; preds = %invoke.cont.i
  %6 = load i32, ptr %.atomictmp.i, align 4
  store atomic i32 %6, ptr %this1.i seq_cst, align 4
  br label %_ZNSt13__atomic_baseIiE5storeEiSt12memory_order.exit

terminate.lpad.i:                                 ; preds = %entry
  %7 = landingpad { ptr, i32 }
          catch ptr null
  %8 = extractvalue { ptr, i32 } %7, 0
  call void @__clang_call_terminate(ptr %8) #11
  unreachable

_ZNSt13__atomic_baseIiE5storeEiSt12memory_order.exit: ; preds = %seqcst.i, %release.i, %monotonic.i
  %9 = load i32, ptr %__i.addr, align 4
  ret i32 %9
}

; Function Attrs: mustprogress nounwind uwtable
define linkonce_odr dso_local noundef i32 @_ZNK2EA6Thread9AtomicIntIiE8GetValueEv(ptr noundef nonnull align 4 dereferenceable(4) %this) #1 comdat align 2 {
entry:
  %this.addr.i = alloca ptr, align 8
  %__m.addr.i = alloca i32, align 4
  %__b.i = alloca i32, align 4
  %atomic-temp.i = alloca i32, align 4
  %this.addr = alloca ptr, align 8
  store ptr %this, ptr %this.addr, align 8
  %this1 = load ptr, ptr %this.addr, align 8
  %mValue = getelementptr inbounds %"class.EA::Thread::AtomicInt", ptr %this1, i32 0, i32 0
  store ptr %mValue, ptr %this.addr.i, align 8
  store i32 5, ptr %__m.addr.i, align 4
  %this1.i = load ptr, ptr %this.addr.i, align 8
  %0 = load i32, ptr %__m.addr.i, align 4
  %call.i = call noundef i32 @_ZStanSt12memory_orderSt23__memory_order_modifier(i32 noundef %0, i32 noundef 65535)
  store i32 %call.i, ptr %__b.i, align 4
  %1 = load i32, ptr %__m.addr.i, align 4
  switch i32 %1, label %monotonic.i [
    i32 1, label %acquire.i
    i32 2, label %acquire.i
    i32 5, label %seqcst.i
  ]

monotonic.i:                                      ; preds = %entry
  %2 = load atomic i32, ptr %this1.i monotonic, align 4
  store i32 %2, ptr %atomic-temp.i, align 4
  br label %_ZNKSt13__atomic_baseIiE4loadESt12memory_order.exit

acquire.i:                                        ; preds = %entry, %entry
  %3 = load atomic i32, ptr %this1.i acquire, align 4
  store i32 %3, ptr %atomic-temp.i, align 4
  br label %_ZNKSt13__atomic_baseIiE4loadESt12memory_order.exit

seqcst.i:                                         ; preds = %entry
  %4 = load atomic i32, ptr %this1.i seq_cst, align 4
  store i32 %4, ptr %atomic-temp.i, align 4
  br label %_ZNKSt13__atomic_baseIiE4loadESt12memory_order.exit

_ZNKSt13__atomic_baseIiE4loadESt12memory_order.exit: ; preds = %seqcst.i, %acquire.i, %monotonic.i
  %5 = load i32, ptr %atomic-temp.i, align 4
  ret i32 %5
}

; Function Attrs: mustprogress nounwind uwtable
define linkonce_odr dso_local noundef i32 @_ZN2EA6Thread9AtomicIntIiEaSEi(ptr noundef nonnull align 4 dereferenceable(4) %this, i32 noundef %n) #1 comdat align 2 {
entry:
  %this.addr = alloca ptr, align 8
  %n.addr = alloca i32, align 4
  store ptr %this, ptr %this.addr, align 8
  store i32 %n, ptr %n.addr, align 4
  %this1 = load ptr, ptr %this.addr, align 8
  %mValue = getelementptr inbounds %"class.EA::Thread::AtomicInt", ptr %this1, i32 0, i32 0
  %0 = load i32, ptr %n.addr, align 4
  %call = call noundef i32 @_ZNSt13__atomic_baseIiEaSEi(ptr noundef nonnull align 4 dereferenceable(4) %mValue, i32 noundef %0) #10
  ret i32 %call
}

; Function Attrs: mustprogress nounwind uwtable
define dso_local noundef ptr @_ZN2EA4StdC18GetCallbackManagerEv() #1 {
entry:
  %0 = load ptr, ptr @_ZN2EA4StdCL17gpCallbackManagerE, align 8
  ret ptr %0
}

; Function Attrs: mustprogress uwtable
define linkonce_odr dso_local noundef i32 @_ZNK2EA6Thread9AtomicIntIiEcvKiEv(ptr noundef nonnull align 4 dereferenceable(4) %this) #2 comdat align 2 {
entry:
  %this.addr = alloca ptr, align 8
  store ptr %this, ptr %this.addr, align 8
  %this1 = load ptr, ptr %this.addr, align 8
  %call = call noundef i32 @_ZNK2EA6Thread9AtomicIntIiE8GetValueEv(ptr noundef nonnull align 4 dereferenceable(4) %this1)
  ret i32 %call
}

; Function Attrs: mustprogress uwtable
define dso_local noundef zeroext i1 @_ZN2EA4StdC8Callback5StartEPNS0_16ICallbackManagerEb(ptr noundef nonnull align 8 dereferenceable(80) %this, ptr noundef %pCallbackManager, i1 noundef zeroext %bOneShot) #2 align 2 {
entry:
  %this.addr = alloca ptr, align 8
  %pCallbackManager.addr = alloca ptr, align 8
  %bOneShot.addr = alloca i8, align 1
  store ptr %this, ptr %this.addr, align 8
  store ptr %pCallbackManager, ptr %pCallbackManager.addr, align 8
  %frombool = zext i1 %bOneShot to i8
  store i8 %frombool, ptr %bOneShot.addr, align 1
  %this1 = load ptr, ptr %this.addr, align 8
  %mbStarted = getelementptr inbounds %"class.EA::StdC::Callback", ptr %this1, i32 0, i32 7
  %call = call noundef i32 @_ZNK2EA6Thread9AtomicIntIiEcvKiEv(ptr noundef nonnull align 4 dereferenceable(4) %mbStarted)
  %tobool = icmp ne i32 %call, 0
  br i1 %tobool, label %if.end13, label %if.then

if.then:                                          ; preds = %entry
  %0 = load ptr, ptr %pCallbackManager.addr, align 8
  %tobool2 = icmp ne ptr %0, null
  br i1 %tobool2, label %if.end, label %if.then3

if.then3:                                         ; preds = %if.then
  %call4 = call noundef ptr @_ZN2EA4StdC18GetCallbackManagerEv()
  store ptr %call4, ptr %pCallbackManager.addr, align 8
  br label %if.end

if.end:                                           ; preds = %if.then3, %if.then
  %1 = load ptr, ptr %pCallbackManager.addr, align 8
  %mpCallbackManager = getelementptr inbounds %"class.EA::StdC::Callback", ptr %this1, i32 0, i32 3
  store ptr %1, ptr %mpCallbackManager, align 8
  %2 = load ptr, ptr %pCallbackManager.addr, align 8
  %tobool5 = icmp ne ptr %2, null
  br i1 %tobool5, label %if.then6, label %if.end12

if.then6:                                         ; preds = %if.end
  %mpCallbackManager7 = getelementptr inbounds %"class.EA::StdC::Callback", ptr %this1, i32 0, i32 3
  %3 = load ptr, ptr %mpCallbackManager7, align 8
  %4 = load i8, ptr %bOneShot.addr, align 1
  %tobool8 = trunc i8 %4 to i1
  %vtable = load ptr, ptr %3, align 8
  %vfn = getelementptr inbounds ptr, ptr %vtable, i64 5
  %5 = load ptr, ptr %vfn, align 8
  %call9 = call noundef zeroext i1 %5(ptr noundef nonnull align 8 dereferenceable(8) %3, ptr noundef %this1, i1 noundef zeroext %tobool8)
  %cond = select i1 %call9, i32 1, i32 0
  %mbStarted10 = getelementptr inbounds %"class.EA::StdC::Callback", ptr %this1, i32 0, i32 7
  %call11 = call noundef i32 @_ZN2EA6Thread9AtomicIntIiEaSEi(ptr noundef nonnull align 4 dereferenceable(4) %mbStarted10, i32 noundef %cond)
  br label %if.end12

if.end12:                                         ; preds = %if.then6, %if.end
  br label %if.end13

if.end13:                                         ; preds = %if.end12, %entry
  %mbStarted14 = getelementptr inbounds %"class.EA::StdC::Callback", ptr %this1, i32 0, i32 7
  %call15 = call noundef i32 @_ZNK2EA6Thread9AtomicIntIiEcvKiEv(ptr noundef nonnull align 4 dereferenceable(4) %mbStarted14)
  %cmp = icmp ne i32 %call15, 0
  ret i1 %cmp
}