; Function Attrs: mustprogress uwtable
define dso_local noundef zeroext i1 @_ZN2EA4StdC8Callback5StartEPNS0_16ICallbackManagerEb(ptr noundef nonnull align 8 dereferenceable(80) %this, ptr noundef %pCallbackManager, i1 noundef zeroext %bOneShot) local_unnamed_addr #1 align 2 personality ptr @__gxx_personality_v0 {
entry:
  %mbStarted = getelementptr inbounds i8, ptr %this, i64 52
  %0 = load atomic i32, ptr %mbStarted seq_cst, align 4
  %tobool.not = icmp eq i32 %0, 0
  br i1 %tobool.not, label %if.then, label %if.end13

if.then:                                          ; preds = %entry
  %tobool2.not = icmp eq ptr %pCallbackManager, null
  br i1 %tobool2.not, label %if.end, label %if.end.thread

if.end.thread:                                    ; preds = %if.then
  %mpCallbackManager4 = getelementptr inbounds i8, ptr %this, i64 24
  store ptr %pCallbackManager, ptr %mpCallbackManager4, align 8
  br label %if.then6

if.end:                                           ; preds = %if.then
  %1 = load ptr, ptr @_ZN2EA4StdCL17gpCallbackManagerE, align 8
  %mpCallbackManager = getelementptr inbounds i8, ptr %this, i64 24
  store ptr %1, ptr %mpCallbackManager, align 8
  %tobool5.not = icmp eq ptr %1, null
  br i1 %tobool5.not, label %if.end13, label %if.then6

if.then6:                                         ; preds = %if.end.thread, %if.end
  %pCallbackManager.addr.06 = phi ptr [ %pCallbackManager, %if.end.thread ], [ %1, %if.end ]
  %vtable = load ptr, ptr %pCallbackManager.addr.06, align 8
  %vfn = getelementptr inbounds i8, ptr %vtable, i64 40
  %2 = load ptr, ptr %vfn, align 8
  %call9 = tail call noundef zeroext i1 %2(ptr noundef nonnull align 8 dereferenceable(8) %pCallbackManager.addr.06, ptr noundef nonnull %this, i1 noundef zeroext %bOneShot)
  %cond = zext i1 %call9 to i32
  store atomic i32 %cond, ptr %mbStarted seq_cst, align 4
  br label %if.end13

if.end13:                                         ; preds = %if.end, %if.then6, %entry
  %3 = load atomic i32, ptr %mbStarted seq_cst, align 4
  %cmp = icmp ne i32 %3, 0
  ret i1 %cmp
}